; Function Attrs: mustprogress nofree norecurse nosync nounwind willreturn memory(read, inaccessiblemem: none) uwtable
define internal noundef ptr @_ZNK9grpc_core12_GLOBAL__N_110PriorityLb13ChildPriority6Helper13parent_helperEv(ptr nocapture noundef nonnull readonly align 8 dereferenceable(16) %this) unnamed_addr #18 align 2 {
entry:
  %priority_ = getelementptr inbounds i8, ptr %this, i64 8
  %priority_.val = load ptr, ptr %priority_, align 8
  %priority_policy_ = getelementptr inbounds i8, ptr %priority_.val, i64 16
  %priority_policy_.val = load ptr, ptr %priority_policy_, align 8
  %channel_control_helper_.i = getelementptr inbounds i8, ptr %priority_policy_.val, i64 40
  %0 = load ptr, ptr %channel_control_helper_.i, align 8
  ret ptr %0
}